target datalayout = "e-m:e-p270:32:32-p271:32:32-p272:64:64-i64:64-i128:128-f80:128-n8:16:32:64-S128"
target triple = "x86_64-pc-linux-gnu"

%struct.quic_stream_map_st = type { ptr, %struct.quic_stream_list_node_st, %struct.quic_stream_list_node_st, %struct.quic_stream_list_node_st, i64, i64, i64, i64, i64, ptr, ptr, ptr, ptr, ptr, i32 }
%struct.quic_stream_list_node_st = type { ptr, ptr }
%struct.quic_stream_st = type { %struct.quic_stream_list_node_st, %struct.quic_stream_list_node_st, %struct.quic_stream_list_node_st, ptr, i64, i64, i64, i64, i64, i64, i64, ptr, ptr, %struct.quic_txfc_st, %struct.quic_rxfc_st, i64 }
%struct.quic_txfc_st = type { ptr, i64, i64, i8 }
%struct.quic_rxfc_st = type { i64, i64, i64, i64, i64, i64, i64, %struct.OSSL_TIME, ptr, ptr, ptr, i8, i8, i8, i8 }
%struct.OSSL_TIME = type { i64 }

@.str = private unnamed_addr constant [38 x i8] c"../openssl/ssl/quic/quic_stream_map.c\00", align 1

; Function Attrs: inlinehint nounwind uwtable
define internal i32 @ossl_quic_stream_is_server_init(ptr noundef %0) #1 {
  %2 = alloca ptr, align 8
  store ptr %0, ptr %2, align 8, !tbaa !37
  %3 = load ptr, ptr %2, align 8, !tbaa !37
  %4 = getelementptr inbounds nuw %struct.quic_stream_st, ptr %3, i32 0, i32 15
  %5 = load i64, ptr %4, align 8
  %6 = and i64 %5, 255
  %7 = trunc i64 %6 to i32
  %8 = and i32 %7, 1
  %9 = icmp eq i32 %8, 1
  %10 = zext i1 %9 to i32
  ret i32 %10
}

; Function Attrs: inlinehint nounwind uwtable
define internal ptr @lh_QUIC_STREAM_insert(ptr noundef %0, ptr noundef %1) #1 {
  %3 = alloca ptr, align 8
  %4 = alloca ptr, align 8
  store ptr %0, ptr %3, align 8, !tbaa !46
  store ptr %1, ptr %4, align 8, !tbaa !37
  %5 = load ptr, ptr %3, align 8, !tbaa !46
  %6 = load ptr, ptr %4, align 8, !tbaa !37
  %7 = call ptr @OPENSSL_LH_insert(ptr noundef %5, ptr noundef %6)
  ret ptr %7
}

; Function Attrs: inlinehint nounwind uwtable
define internal i32 @ossl_quic_stream_is_bidi(ptr noundef %0) #1 {
  %2 = alloca ptr, align 8
  store ptr %0, ptr %2, align 8, !tbaa !37
  %3 = load ptr, ptr %2, align 8, !tbaa !37
  %4 = getelementptr inbounds nuw %struct.quic_stream_st, ptr %3, i32 0, i32 15
  %5 = load i64, ptr %4, align 8
  %6 = and i64 %5, 255
  %7 = trunc i64 %6 to i32
  %8 = and i32 %7, 2
  %9 = icmp eq i32 %8, 0
  %10 = zext i1 %9 to i32
  ret i32 %10
}

; Function Attrs: inlinehint nounwind uwtable
define internal i32 @ossl_quic_stream_is_local_init(ptr noundef %0) #1 {
  %2 = alloca ptr, align 8
  store ptr %0, ptr %2, align 8, !tbaa !37
  %3 = load ptr, ptr %2, align 8, !tbaa !37
  %4 = call i32 @ossl_quic_stream_is_server_init(ptr noundef %3)
  %5 = load ptr, ptr %2, align 8, !tbaa !37
  %6 = getelementptr inbounds nuw %struct.quic_stream_st, ptr %5, i32 0, i32 15
  %7 = load i64, ptr %6, align 8
  %8 = lshr i64 %7, 25
  %9 = and i64 %8, 1
  %10 = trunc i64 %9 to i32
  %11 = icmp eq i32 %4, %10
  %12 = zext i1 %11 to i32
  ret i32 %12
}

; Function Attrs: inlinehint nounwind uwtable
define internal ptr @lh_QUIC_STREAM_retrieve(ptr noundef %0, ptr noundef %1) #1 {
  %3 = alloca ptr, align 8
  %4 = alloca ptr, align 8
  store ptr %0, ptr %3, align 8, !tbaa !46
  store ptr %1, ptr %4, align 8, !tbaa !37
  %5 = load ptr, ptr %3, align 8, !tbaa !46
  %6 = load ptr, ptr %4, align 8, !tbaa !37
  %7 = call ptr @OPENSSL_LH_retrieve(ptr noundef %5, ptr noundef %6)
  ret ptr %7
}

; Function Attrs: nounwind uwtable
define ptr @ossl_quic_stream_map_alloc(ptr noundef %0, i64 noundef %1, i32 noundef %2) #0 {
  %4 = alloca ptr, align 8
  %5 = alloca ptr, align 8
  %6 = alloca i64, align 8
  %7 = alloca i32, align 4
  %8 = alloca ptr, align 8
  %9 = alloca %struct.quic_stream_st, align 8
  %10 = alloca i32, align 4
  store ptr %0, ptr %5, align 8, !tbaa !3
  store i64 %1, ptr %6, align 8, !tbaa !47
  store i32 %2, ptr %7, align 4, !tbaa !11
  call void @llvm.lifetime.start.p0(i64 8, ptr %8) #5
  call void @llvm.lifetime.start.p0(i64 264, ptr %9) #5
  %11 = load i64, ptr %6, align 8, !tbaa !47
  %12 = getelementptr inbounds nuw %struct.quic_stream_st, ptr %9, i32 0, i32 4
  store i64 %11, ptr %12, align 8, !tbaa !38
  %13 = load ptr, ptr %5, align 8, !tbaa !3
  %14 = getelementptr inbounds nuw %struct.quic_stream_map_st, ptr %13, i32 0, i32 0
  %15 = load ptr, ptr %14, align 8, !tbaa !13
  %16 = call ptr @lh_QUIC_STREAM_retrieve(ptr noundef %15, ptr noundef %9)
  store ptr %16, ptr %8, align 8, !tbaa !37
  %17 = load ptr, ptr %8, align 8, !tbaa !37
  %18 = icmp ne ptr %17, null
  br i1 %18, label %19, label %20

19:                                               ; preds = %3
  store ptr null, ptr %4, align 8
  store i32 1, ptr %10, align 4
  br label %92

20:                                               ; preds = %3
  %21 = call noalias ptr @CRYPTO_zalloc(i64 noundef 264, ptr noundef @.str, i32 noundef 153)
  store ptr %21, ptr %8, align 8, !tbaa !37
  %22 = load ptr, ptr %8, align 8, !tbaa !37
  %23 = icmp eq ptr %22, null
  br i1 %23, label %24, label %25

24:                                               ; preds = %20
  store ptr null, ptr %4, align 8
  store i32 1, ptr %10, align 4
  br label %92

25:                                               ; preds = %20
  %26 = load i64, ptr %6, align 8, !tbaa !47
  %27 = load ptr, ptr %8, align 8, !tbaa !37
  %28 = getelementptr inbounds nuw %struct.quic_stream_st, ptr %27, i32 0, i32 4
  store i64 %26, ptr %28, align 8, !tbaa !38
  %29 = load i32, ptr %7, align 4, !tbaa !11
  %30 = load ptr, ptr %8, align 8, !tbaa !37
  %31 = getelementptr inbounds nuw %struct.quic_stream_st, ptr %30, i32 0, i32 15
  %32 = zext i32 %29 to i64
  %33 = load i64, ptr %31, align 8
  %34 = and i64 %32, 255
  %35 = and i64 %33, -256
  %36 = or i64 %35, %34
  store i64 %36, ptr %31, align 8
  %37 = load ptr, ptr %5, align 8, !tbaa !3
  %38 = getelementptr inbounds nuw %struct.quic_stream_map_st, ptr %37, i32 0, i32 14
  %39 = load i32, ptr %38, align 8, !tbaa !36
  %40 = load ptr, ptr %8, align 8, !tbaa !37
  %41 = getelementptr inbounds nuw %struct.quic_stream_st, ptr %40, i32 0, i32 15
  %42 = zext i32 %39 to i64
  %43 = load i64, ptr %41, align 8
  %44 = and i64 %42, 1
  %45 = shl i64 %44, 25
  %46 = and i64 %43, -33554433
  %47 = or i64 %46, %45
  store i64 %47, ptr %41, align 8
  %48 = load ptr, ptr %8, align 8, !tbaa !37
  %49 = call i32 @ossl_quic_stream_is_local_init(ptr noundef %48)
  %50 = icmp ne i32 %49, 0
  br i1 %50, label %55, label %51

51:                                               ; preds = %25
  %52 = load ptr, ptr %8, align 8, !tbaa !37
  %53 = call i32 @ossl_quic_stream_is_bidi(ptr noundef %52)
  %54 = icmp ne i32 %53, 0
  br label %55

55:                                               ; preds = %51, %25
  %56 = phi i1 [ true, %25 ], [ %54, %51 ]
  %57 = select i1 %56, i32 1, i32 0
  %58 = load ptr, ptr %8, align 8, !tbaa !37
  %59 = getelementptr inbounds nuw %struct.quic_stream_st, ptr %58, i32 0, i32 15
  %60 = zext i32 %57 to i64
  %61 = load i64, ptr %59, align 8
  %62 = and i64 %60, 255
  %63 = shl i64 %62, 8
  %64 = and i64 %61, -65281
  %65 = or i64 %64, %63
  store i64 %65, ptr %59, align 8
  %66 = load ptr, ptr %8, align 8, !tbaa !37
  %67 = call i32 @ossl_quic_stream_is_local_init(ptr noundef %66)
  %68 = icmp ne i32 %67, 0
  br i1 %68, label %69, label %73

69:                                               ; preds = %55
  %70 = load ptr, ptr %8, align 8, !tbaa !37
  %71 = call i32 @ossl_quic_stream_is_bidi(ptr noundef %70)
  %72 = icmp ne i32 %71, 0
  br label %73

73:                                               ; preds = %69, %55
  %74 = phi i1 [ true, %55 ], [ %72, %69 ]
  %75 = select i1 %74, i32 1, i32 0
  %76 = load ptr, ptr %8, align 8, !tbaa !37
  %77 = getelementptr inbounds nuw %struct.quic_stream_st, ptr %76, i32 0, i32 15
  %78 = zext i32 %75 to i64
  %79 = load i64, ptr %77, align 8
  %80 = and i64 %78, 255
  %81 = shl i64 %80, 16
  %82 = and i64 %79, -16711681
  %83 = or i64 %82, %81
  store i64 %83, ptr %77, align 8
  %84 = load ptr, ptr %8, align 8, !tbaa !37
  %85 = getelementptr inbounds nuw %struct.quic_stream_st, ptr %84, i32 0, i32 10
  store i64 -1, ptr %85, align 8, !tbaa !48
  %86 = load ptr, ptr %5, align 8, !tbaa !3
  %87 = getelementptr inbounds nuw %struct.quic_stream_map_st, ptr %86, i32 0, i32 0
  %88 = load ptr, ptr %87, align 8, !tbaa !13
  %89 = load ptr, ptr %8, align 8, !tbaa !37
  %90 = call ptr @lh_QUIC_STREAM_insert(ptr noundef %88, ptr noundef %89)
  %91 = load ptr, ptr %8, align 8, !tbaa !37
  store ptr %91, ptr %4, align 8
  store i32 1, ptr %10, align 4
  br label %92

92:                                               ; preds = %73, %24, %19
  call void @llvm.lifetime.end.p0(i64 264, ptr %9) #5
  call void @llvm.lifetime.end.p0(i64 8, ptr %8) #5
  %93 = load ptr, ptr %4, align 8
  ret ptr %93
}