; Function Attrs: nounwind uwtable
define ptr @ossl_quic_stream_map_alloc(ptr noundef readonly captures(none) %0, i64 noundef %1, i32 noundef %2) local_unnamed_addr #0 {
  %4 = alloca %struct.quic_stream_st, align 8
  call void @llvm.lifetime.start.p0(i64 264, ptr nonnull %4) #13
  %5 = getelementptr inbounds nuw i8, ptr %4, i64 56
  store i64 %1, ptr %5, align 8, !tbaa !27
  %6 = load ptr, ptr %0, align 8, !tbaa !3
  %7 = call ptr @OPENSSL_LH_retrieve(ptr noundef %6, ptr noundef nonnull %4) #13
  %.not = icmp eq ptr %7, null
  br i1 %.not, label %8, label %48

8:                                                ; preds = %3
  %9 = call noalias ptr @CRYPTO_zalloc(i64 noundef 264, ptr noundef nonnull @.str, i32 noundef 153) #13
  %10 = icmp eq ptr %9, null
  br i1 %10, label %48, label %11

11:                                               ; preds = %8
  %12 = getelementptr inbounds nuw i8, ptr %9, i64 56
  store i64 %1, ptr %12, align 8, !tbaa !27
  %13 = getelementptr inbounds nuw i8, ptr %9, i64 256
  %14 = load i64, ptr %13, align 8
  %15 = and i32 %2, 255
  %16 = zext nneg i32 %15 to i64
  %17 = and i64 %14, -33554688
  %18 = or disjoint i64 %17, %16
  %19 = getelementptr inbounds nuw i8, ptr %0, i64 136
  %20 = load i32, ptr %19, align 8, !tbaa !26
  %21 = shl i32 %20, 25
  %22 = and i32 %21, 33554432
  %23 = zext nneg i32 %22 to i64
  %24 = or disjoint i64 %18, %23
  %25 = trunc i64 %24 to i32
  %26 = lshr i32 %25, 25
  %27 = xor i32 %26, %25
  %28 = and i32 %27, 1
  %.not21.not = icmp eq i32 %28, 0
  %29 = shl i32 %2, 7
  %30 = and i32 %29, 256
  %31 = xor i32 %30, 256
  %narrow = select i1 %.not21.not, i32 256, i32 %31
  %32 = zext nneg i32 %narrow to i64
  %33 = and i64 %24, -65281
  %34 = or disjoint i64 %33, %32
  %35 = trunc i64 %34 to i32
  %36 = lshr i32 %35, 25
  %37 = xor i32 %36, %35
  %38 = and i32 %37, 1
  %.not22.not = icmp eq i32 %38, 0
  %39 = shl i32 %2, 15
  %40 = and i32 %39, 65536
  %41 = xor i32 %40, 65536
  %narrow26 = select i1 %.not22.not, i32 %41, i32 65536
  %42 = zext nneg i32 %narrow26 to i64
  %43 = and i64 %34, -16776705
  %44 = or disjoint i64 %43, %42
  store i64 %44, ptr %13, align 8
  %45 = getelementptr inbounds nuw i8, ptr %9, i64 104
  store i64 -1, ptr %45, align 8, !tbaa !35
  %46 = load ptr, ptr %0, align 8, !tbaa !3
  %47 = call ptr @OPENSSL_LH_insert(ptr noundef %46, ptr noundef nonnull %9) #13
  br label %48

48:                                               ; preds = %8, %3, %11
  %.0 = phi ptr [ %9, %11 ], [ null, %3 ], [ null, %8 ]
  call void @llvm.lifetime.end.p0(i64 264, ptr nonnull %4) #13
  ret ptr %.0
}